; Function Attrs: mustprogress nounwind uwtable
define dso_local i64 @_ZNK4llvm18RegPressureTracker16getLastUsedLanesENS_8RegisterENS_9SlotIndexE(ptr nocapture noundef nonnull readonly align 8 dereferenceable(352) %0, i32 %1, i64 %2) local_unnamed_addr #0 align 2 {
  %4 = getelementptr inbounds nuw i8, ptr %0, i64 32
  %5 = load ptr, ptr %4, align 8
  %6 = getelementptr inbounds nuw i8, ptr %0, i64 24
  %7 = load ptr, ptr %6, align 8
  %8 = getelementptr inbounds nuw i8, ptr %0, i64 58
  %9 = load i8, ptr %8, align 2
  %10 = trunc i8 %9 to i1
  %11 = and i64 %2, -8
  %12 = tail call fastcc i64 @_ZL20getLanesWithPropertyRKN4llvm13LiveIntervalsERKNS_19MachineRegisterInfoEbNS_8RegisterENS_9SlotIndexENS_11LaneBitmaskEPFbRKNS_9LiveRangeES7_E(ptr noundef nonnull align 8 dereferenceable(440) %5, ptr noundef nonnull align 8 dereferenceable(512) %7, i1 noundef zeroext %10, i32 %1, i64 %11, i64 0, ptr noundef nonnull @"_ZZNK4llvm18RegPressureTracker16getLastUsedLanesENS_8RegisterENS_9SlotIndexEEN3$_08__invokeERKNS_9LiveRangeES2_")
  ret i64 %12
}